target datalayout = "e-m:e-p270:32:32-p271:32:32-p272:64:64-i64:64-i128:128-f80:128-n8:16:32:64-S128"
target triple = "x86_64-pc-linux-gnu"

%struct._zval_struct = type { %union._zend_value, %union.anon.3, %union.anon.6 }
%union._zend_value = type { i64 }
%union.anon.3 = type { i32 }
%union.anon.6 = type { i32 }
%struct._php_stream = type { ptr, ptr, %struct._php_stream_filter_chain, %struct._php_stream_filter_chain, ptr, ptr, %struct._zval_struct, i16, [16 x i8], i32, ptr, ptr, ptr, ptr, i64, ptr, i64, i64, i64, i64, ptr }
%struct._php_stream_filter_chain = type { ptr, ptr, ptr }
%struct._php_stream_filter = type { ptr, %struct._zval_struct, ptr, ptr, i32, ptr, %struct._php_stream_bucket_brigade, ptr }
%struct._php_stream_bucket_brigade = type { ptr, ptr }
%struct._php_stream_filter_ops = type { ptr, ptr, ptr }
%struct._php_stream_bucket = type { ptr, ptr, ptr, ptr, i64, i8, i8, i32 }

; Function Attrs: nounwind uwtable
define internal i64 @_php_stream_write_filtered(ptr noundef %0, ptr noundef %1, i64 noundef %2, i32 noundef %3) #0 {
  %5 = alloca i64, align 8
  %6 = alloca ptr, align 8
  %7 = alloca ptr, align 8
  %8 = alloca i64, align 8
  %9 = alloca i32, align 4
  %10 = alloca i64, align 8
  %11 = alloca ptr, align 8
  %12 = alloca %struct._php_stream_bucket_brigade, align 8
  %13 = alloca %struct._php_stream_bucket_brigade, align 8
  %14 = alloca ptr, align 8
  %15 = alloca ptr, align 8
  %16 = alloca ptr, align 8
  %17 = alloca i32, align 4
  %18 = alloca ptr, align 8
  store ptr %0, ptr %6, align 8
  store ptr %1, ptr %7, align 8
  store i64 %2, ptr %8, align 8
  store i32 %3, ptr %9, align 4
  store i64 0, ptr %10, align 8
  call void @llvm.memset.p0.i64(ptr align 8 %12, i8 0, i64 16, i1 false)
  call void @llvm.memset.p0.i64(ptr align 8 %13, i8 0, i64 16, i1 false)
  store ptr %12, ptr %14, align 8
  store ptr %13, ptr %15, align 8
  store i32 0, ptr %17, align 4
  %19 = load ptr, ptr %7, align 8
  %20 = icmp ne ptr %19, null
  br i1 %20, label %21, label %27

21:                                               ; preds = %4
  %22 = load ptr, ptr %6, align 8
  %23 = load ptr, ptr %7, align 8
  %24 = load i64, ptr %8, align 8
  %25 = call ptr @php_stream_bucket_new(ptr noundef %22, ptr noundef %23, i64 noundef %24, i8 noundef zeroext 0, i8 noundef zeroext 0)
  store ptr %25, ptr %11, align 8
  %26 = load ptr, ptr %11, align 8
  call void @php_stream_bucket_append(ptr noundef %12, ptr noundef %26)
  br label %27

27:                                               ; preds = %21, %4
  %28 = load ptr, ptr %6, align 8
  %29 = getelementptr inbounds %struct._php_stream, ptr %28, i32 0, i32 3
  %30 = getelementptr inbounds %struct._php_stream_filter_chain, ptr %29, i32 0, i32 0
  %31 = load ptr, ptr %30, align 8
  store ptr %31, ptr %18, align 8
  br label %32

32:                                               ; preds = %65, %27
  %33 = load ptr, ptr %18, align 8
  %34 = icmp ne ptr %33, null
  br i1 %34, label %35, label %69

35:                                               ; preds = %32
  %36 = load ptr, ptr %18, align 8
  %37 = getelementptr inbounds %struct._php_stream_filter, ptr %36, i32 0, i32 0
  %38 = load ptr, ptr %37, align 8
  %39 = getelementptr inbounds %struct._php_stream_filter_ops, ptr %38, i32 0, i32 0
  %40 = load ptr, ptr %39, align 8
  %41 = load ptr, ptr %6, align 8
  %42 = load ptr, ptr %18, align 8
  %43 = load ptr, ptr %14, align 8
  %44 = load ptr, ptr %15, align 8
  %45 = load ptr, ptr %18, align 8
  %46 = load ptr, ptr %6, align 8
  %47 = getelementptr inbounds %struct._php_stream, ptr %46, i32 0, i32 3
  %48 = getelementptr inbounds %struct._php_stream_filter_chain, ptr %47, i32 0, i32 0
  %49 = load ptr, ptr %48, align 8
  %50 = icmp eq ptr %45, %49
  br i1 %50, label %51, label %52

51:                                               ; preds = %35
  br label %53

52:                                               ; preds = %35
  br label %53

53:                                               ; preds = %52, %51
  %54 = phi ptr [ %10, %51 ], [ null, %52 ]
  %55 = load i32, ptr %9, align 4
  %56 = call i32 %40(ptr noundef %41, ptr noundef %42, ptr noundef %43, ptr noundef %44, ptr noundef %54, i32 noundef %55)
  store i32 %56, ptr %17, align 4
  %57 = load i32, ptr %17, align 4
  %58 = icmp ne i32 %57, 2
  br i1 %58, label %59, label %60

59:                                               ; preds = %53
  br label %69

60:                                               ; preds = %53
  %61 = load ptr, ptr %14, align 8
  store ptr %61, ptr %16, align 8
  %62 = load ptr, ptr %15, align 8
  store ptr %62, ptr %14, align 8
  %63 = load ptr, ptr %16, align 8
  store ptr %63, ptr %15, align 8
  %64 = load ptr, ptr %15, align 8
  call void @llvm.memset.p0.i64(ptr align 8 %64, i8 0, i64 16, i1 false)
  br label %65

65:                                               ; preds = %60
  %66 = load ptr, ptr %18, align 8
  %67 = getelementptr inbounds %struct._php_stream_filter, ptr %66, i32 0, i32 2
  %68 = load ptr, ptr %67, align 8
  store ptr %68, ptr %18, align 8
  br label %32

69:                                               ; preds = %59, %32
  %70 = load i32, ptr %17, align 4
  switch i32 %70, label %97 [
    i32 2, label %71
    i32 1, label %95
    i32 0, label %96
  ]

71:                                               ; preds = %69
  br label %72

72:                                               ; preds = %91, %71
  %73 = load ptr, ptr %14, align 8
  %74 = getelementptr inbounds %struct._php_stream_bucket_brigade, ptr %73, i32 0, i32 0
  %75 = load ptr, ptr %74, align 8
  %76 = icmp ne ptr %75, null
  br i1 %76, label %77, label %94

77:                                               ; preds = %72
  %78 = load ptr, ptr %14, align 8
  %79 = getelementptr inbounds %struct._php_stream_bucket_brigade, ptr %78, i32 0, i32 0
  %80 = load ptr, ptr %79, align 8
  store ptr %80, ptr %11, align 8
  %81 = load ptr, ptr %6, align 8
  %82 = load ptr, ptr %11, align 8
  %83 = getelementptr inbounds %struct._php_stream_bucket, ptr %82, i32 0, i32 3
  %84 = load ptr, ptr %83, align 8
  %85 = load ptr, ptr %11, align 8
  %86 = getelementptr inbounds %struct._php_stream_bucket, ptr %85, i32 0, i32 4
  %87 = load i64, ptr %86, align 8
  %88 = call i64 @_php_stream_write_buffer(ptr noundef %81, ptr noundef %84, i64 noundef %87)
  %89 = icmp slt i64 %88, 0
  br i1 %89, label %90, label %91

90:                                               ; preds = %77
  store i64 -1, ptr %10, align 8
  br label %91

91:                                               ; preds = %90, %77
  %92 = load ptr, ptr %11, align 8
  call void @php_stream_bucket_unlink(ptr noundef %92)
  %93 = load ptr, ptr %11, align 8
  call void @php_stream_bucket_delref(ptr noundef %93)
  br label %72

94:                                               ; preds = %72
  br label %97

95:                                               ; preds = %69
  br label %97

96:                                               ; preds = %69
  store i64 -1, ptr %5, align 8
  br label %99

97:                                               ; preds = %95, %94, %69
  %98 = load i64, ptr %10, align 8
  store i64 %98, ptr %5, align 8
  br label %99

99:                                               ; preds = %97, %96
  %100 = load i64, ptr %5, align 8
  ret i64 %100
}