; Function Attrs: nounwind uwtable
define internal fastcc i64 @_php_stream_write_filtered(ptr noundef %0, ptr noundef %1, i64 noundef %2, i32 noundef %3) unnamed_addr #2 {
  %5 = alloca i64, align 8
  %6 = alloca %struct._php_stream_bucket_brigade, align 8
  %7 = alloca %struct._php_stream_bucket_brigade, align 8
  store i64 0, ptr %5, align 8
  call void @llvm.memset.p0.i64(ptr noundef nonnull align 8 dereferenceable(16) %6, i8 0, i64 16, i1 false)
  call void @llvm.memset.p0.i64(ptr noundef nonnull align 8 dereferenceable(16) %7, i8 0, i64 16, i1 false)
  %.not = icmp eq ptr %1, null
  br i1 %.not, label %10, label %8

8:                                                ; preds = %4
  %9 = tail call ptr @php_stream_bucket_new(ptr noundef %0, ptr noundef nonnull %1, i64 noundef %2, i8 noundef zeroext 0, i8 noundef zeroext 0) #27
  call void @php_stream_bucket_append(ptr noundef nonnull %6, ptr noundef %9) #27
  br label %10

10:                                               ; preds = %8, %4
  %11 = getelementptr inbounds i8, ptr %0, i64 40
  %.040 = load ptr, ptr %11, align 8
  %.not3741 = icmp eq ptr %.040, null
  br i1 %.not3741, label %._crit_edge.thread54, label %.lr.ph

.lr.ph:                                           ; preds = %10, %17
  %.044 = phi ptr [ %.0, %17 ], [ %.040, %10 ]
  %.03143 = phi ptr [ %.03242, %17 ], [ %7, %10 ]
  %.03242 = phi ptr [ %.03143, %17 ], [ %6, %10 ]
  %12 = load ptr, ptr %.044, align 8
  %13 = load ptr, ptr %12, align 8
  %14 = load ptr, ptr %11, align 8
  %15 = icmp eq ptr %.044, %14
  %. = select i1 %15, ptr %5, ptr null
  %16 = call i32 %13(ptr noundef nonnull %0, ptr noundef nonnull %.044, ptr noundef %.03242, ptr noundef nonnull %.03143, ptr noundef %., i32 noundef %3) #27
  switch i32 %16, label %.loopexit [
    i32 2, label %17
    i32 0, label %._crit_edge.thread54
  ]

17:                                               ; preds = %.lr.ph
  call void @llvm.memset.p0.i64(ptr noundef nonnull align 8 dereferenceable(16) %.03242, i8 0, i64 16, i1 false)
  %18 = getelementptr inbounds i8, ptr %.044, i64 24
  %.0 = load ptr, ptr %18, align 8
  %.not37 = icmp eq ptr %.0, null
  br i1 %.not37, label %.preheader, label %.lr.ph

.preheader:                                       ; preds = %17
  %19 = load ptr, ptr %.03143, align 8
  %.not3949 = icmp eq ptr %19, null
  br i1 %.not3949, label %.loopexit, label %.lr.ph50

.lr.ph50:                                         ; preds = %.preheader, %28
  %20 = phi ptr [ %29, %28 ], [ %19, %.preheader ]
  %21 = getelementptr inbounds i8, ptr %20, i64 24
  %22 = load ptr, ptr %21, align 8
  %23 = getelementptr inbounds i8, ptr %20, i64 32
  %24 = load i64, ptr %23, align 8
  %25 = call fastcc i64 @_php_stream_write_buffer(ptr noundef %0, ptr noundef %22, i64 noundef %24)
  %26 = icmp slt i64 %25, 0
  br i1 %26, label %27, label %28

27:                                               ; preds = %.lr.ph50
  store i64 -1, ptr %5, align 8
  br label %28

28:                                               ; preds = %27, %.lr.ph50
  call void @php_stream_bucket_unlink(ptr noundef nonnull %20) #27
  call void @php_stream_bucket_delref(ptr noundef nonnull %20) #27
  %29 = load ptr, ptr %.03143, align 8
  %.not39 = icmp eq ptr %29, null
  br i1 %.not39, label %.loopexit, label %.lr.ph50

.loopexit:                                        ; preds = %.lr.ph, %28, %.preheader
  %30 = load i64, ptr %5, align 8
  br label %._crit_edge.thread54

._crit_edge.thread54:                             ; preds = %.lr.ph, %10, %.loopexit
  %.030 = phi i64 [ %30, %.loopexit ], [ -1, %10 ], [ -1, %.lr.ph ]
  ret i64 %.030
}